; Function Attrs: nounwind uwtable
define ptr @l_Lean_Environment_addConstAsync___lambda__8___boxed(ptr noundef %0, ptr noundef %1, ptr noundef %2, ptr noundef %3, ptr noundef %4, ptr noundef %5, ptr noundef %6) local_unnamed_addr #1 {
  %8 = ptrtoint ptr %1 to i64
  %9 = lshr i64 %8, 1
  %10 = trunc i64 %9 to i8
  %11 = and i64 %8, 1
  %.not = icmp eq i64 %11, 0
  br i1 %.not, label %12, label %lean_dec.exit16

12:                                               ; preds = %7
  %13 = load i32, ptr %1, align 4, !tbaa !4
  %14 = icmp sgt i32 %13, 1
  br i1 %14, label %15, label %17, !prof !11

15:                                               ; preds = %12
  %16 = add nsw i32 %13, -1
  store i32 %16, ptr %1, align 4, !tbaa !4
  br label %lean_dec.exit16

17:                                               ; preds = %12
  %.not.i = icmp eq i32 %13, 0
  br i1 %.not.i, label %lean_dec.exit16, label %18

18:                                               ; preds = %17
  tail call void @lean_dec_ref_cold(ptr noundef nonnull %1) #10
  br label %lean_dec.exit16

lean_dec.exit16:                                  ; preds = %18, %17, %15, %7
  %19 = ptrtoint ptr %2 to i64
  %20 = lshr i64 %19, 1
  %21 = trunc i64 %20 to i8
  %22 = and i64 %19, 1
  %.not23 = icmp eq i64 %22, 0
  br i1 %.not23, label %23, label %lean_dec.exit15

23:                                               ; preds = %lean_dec.exit16
  %24 = load i32, ptr %2, align 4, !tbaa !4
  %25 = icmp sgt i32 %24, 1
  br i1 %25, label %26, label %28, !prof !11

26:                                               ; preds = %23
  %27 = add nsw i32 %24, -1
  store i32 %27, ptr %2, align 4, !tbaa !4
  br label %lean_dec.exit15

28:                                               ; preds = %23
  %.not.i17 = icmp eq i32 %24, 0
  br i1 %.not.i17, label %lean_dec.exit15, label %29

29:                                               ; preds = %28
  tail call void @lean_dec_ref_cold(ptr noundef nonnull %2) #10
  br label %lean_dec.exit15

lean_dec.exit15:                                  ; preds = %29, %28, %26, %lean_dec.exit16
  %30 = ptrtoint ptr %4 to i64
  %31 = lshr i64 %30, 1
  %32 = trunc i64 %31 to i8
  %33 = and i64 %30, 1
  %.not24 = icmp eq i64 %33, 0
  br i1 %.not24, label %34, label %lean_dec.exit14

34:                                               ; preds = %lean_dec.exit15
  %35 = load i32, ptr %4, align 4, !tbaa !4
  %36 = icmp sgt i32 %35, 1
  br i1 %36, label %37, label %39, !prof !11

37:                                               ; preds = %34
  %38 = add nsw i32 %35, -1
  store i32 %38, ptr %4, align 4, !tbaa !4
  br label %lean_dec.exit14

39:                                               ; preds = %34
  %.not.i19 = icmp eq i32 %35, 0
  br i1 %.not.i19, label %lean_dec.exit14, label %40

40:                                               ; preds = %39
  tail call void @lean_dec_ref_cold(ptr noundef nonnull %4) #10
  br label %lean_dec.exit14

lean_dec.exit14:                                  ; preds = %40, %39, %37, %lean_dec.exit15
  %41 = tail call ptr @l_Lean_Environment_addConstAsync___lambda__8(ptr noundef %0, i8 noundef zeroext %10, i8 noundef zeroext %21, ptr noundef %3, i8 noundef zeroext %32, ptr poison, ptr noundef %6)
  %42 = ptrtoint ptr %5 to i64
  %43 = and i64 %42, 1
  %.not25 = icmp eq i64 %43, 0
  br i1 %.not25, label %44, label %lean_dec.exit

44:                                               ; preds = %lean_dec.exit14
  %45 = load i32, ptr %5, align 4, !tbaa !4
  %46 = icmp sgt i32 %45, 1
  br i1 %46, label %47, label %49, !prof !11

47:                                               ; preds = %44
  %48 = add nsw i32 %45, -1
  store i32 %48, ptr %5, align 4, !tbaa !4
  br label %lean_dec.exit

49:                                               ; preds = %44
  %.not.i21 = icmp eq i32 %45, 0
  br i1 %.not.i21, label %lean_dec.exit, label %50

50:                                               ; preds = %49
  tail call void @lean_dec_ref_cold(ptr noundef nonnull %5) #10
  br label %lean_dec.exit

lean_dec.exit:                                    ; preds = %50, %49, %47, %lean_dec.exit14
  ret ptr %41
}